target datalayout = "e-m:e-p270:32:32-p271:32:32-p272:64:64-i64:64-i128:128-f80:128-n8:16:32:64-S128"
target triple = "x86_64-pc-linux-gnu"

%struct.ossl_param_st = type { ptr, i32, ptr, i64, i64 }

@.str.53 = private unnamed_addr constant [31 x i8] c"../openssl/test/evp_kdf_test.c\00", align 1
@.str.70 = private unnamed_addr constant [5 x i8] c"pass\00", align 1
@.str.71 = private unnamed_addr constant [5 x i8] c"salt\00", align 1
@.str.72 = private unnamed_addr constant [5 x i8] c"iter\00", align 1
@.str.73 = private unnamed_addr constant [7 x i8] c"digest\00", align 1

; Function Attrs: nounwind uwtable
define internal ptr @construct_pbkdf1_params(ptr noundef %0, ptr noundef %1, ptr noundef %2, ptr noundef %3) #0 {
  %5 = alloca ptr, align 8
  %6 = alloca ptr, align 8
  %7 = alloca ptr, align 8
  %8 = alloca ptr, align 8
  %9 = alloca ptr, align 8
  %10 = alloca ptr, align 8
  %11 = alloca ptr, align 8
  %12 = alloca i32, align 4
  %13 = alloca %struct.ossl_param_st, align 8
  %14 = alloca %struct.ossl_param_st, align 8
  %15 = alloca %struct.ossl_param_st, align 8
  %16 = alloca %struct.ossl_param_st, align 8
  %17 = alloca %struct.ossl_param_st, align 8
  store ptr %0, ptr %6, align 8, !tbaa !18
  store ptr %1, ptr %7, align 8, !tbaa !18
  store ptr %2, ptr %8, align 8, !tbaa !18
  store ptr %3, ptr %9, align 8, !tbaa !40
  call void @llvm.lifetime.start.p0(i64 8, ptr %10) #6
  %18 = call noalias ptr @CRYPTO_malloc(i64 noundef 200, ptr noundef @.str.53, i32 noundef 479)
  store ptr %18, ptr %10, align 8, !tbaa !13
  call void @llvm.lifetime.start.p0(i64 8, ptr %11) #6
  %19 = load ptr, ptr %10, align 8, !tbaa !13
  store ptr %19, ptr %11, align 8, !tbaa !13
  %20 = load ptr, ptr %10, align 8, !tbaa !13
  %21 = icmp eq ptr %20, null
  br i1 %21, label %22, label %23

22:                                               ; preds = %4
  store ptr null, ptr %5, align 8
  store i32 1, ptr %12, align 4
  br label %42

23:                                               ; preds = %4
  %24 = load ptr, ptr %11, align 8, !tbaa !13
  %25 = getelementptr inbounds nuw %struct.ossl_param_st, ptr %24, i32 1
  store ptr %25, ptr %11, align 8, !tbaa !13
  call void @llvm.lifetime.start.p0(i64 40, ptr %13) #6
  %26 = load ptr, ptr %6, align 8, !tbaa !18
  %27 = load ptr, ptr %6, align 8, !tbaa !18
  %28 = call i64 @strlen(ptr noundef %27) #7
  call void @OSSL_PARAM_construct_octet_string(ptr dead_on_unwind writable sret(%struct.ossl_param_st) align 8 %13, ptr noundef @.str.70, ptr noundef %26, i64 noundef %28)
  call void @llvm.memcpy.p0.p0.i64(ptr align 8 %24, ptr align 8 %13, i64 40, i1 false), !tbaa.struct !17
  call void @llvm.lifetime.end.p0(i64 40, ptr %13) #6
  %29 = load ptr, ptr %11, align 8, !tbaa !13
  %30 = getelementptr inbounds nuw %struct.ossl_param_st, ptr %29, i32 1
  store ptr %30, ptr %11, align 8, !tbaa !13
  call void @llvm.lifetime.start.p0(i64 40, ptr %14) #6
  %31 = load ptr, ptr %8, align 8, !tbaa !18
  %32 = load ptr, ptr %8, align 8, !tbaa !18
  %33 = call i64 @strlen(ptr noundef %32) #7
  call void @OSSL_PARAM_construct_octet_string(ptr dead_on_unwind writable sret(%struct.ossl_param_st) align 8 %14, ptr noundef @.str.71, ptr noundef %31, i64 noundef %33)
  call void @llvm.memcpy.p0.p0.i64(ptr align 8 %29, ptr align 8 %14, i64 40, i1 false), !tbaa.struct !17
  call void @llvm.lifetime.end.p0(i64 40, ptr %14) #6
  %34 = load ptr, ptr %11, align 8, !tbaa !13
  %35 = getelementptr inbounds nuw %struct.ossl_param_st, ptr %34, i32 1
  store ptr %35, ptr %11, align 8, !tbaa !13
  call void @llvm.lifetime.start.p0(i64 40, ptr %15) #6
  %36 = load ptr, ptr %9, align 8, !tbaa !40
  call void @OSSL_PARAM_construct_uint(ptr dead_on_unwind writable sret(%struct.ossl_param_st) align 8 %15, ptr noundef @.str.72, ptr noundef %36)
  call void @llvm.memcpy.p0.p0.i64(ptr align 8 %34, ptr align 8 %15, i64 40, i1 false), !tbaa.struct !17
  call void @llvm.lifetime.end.p0(i64 40, ptr %15) #6
  %37 = load ptr, ptr %11, align 8, !tbaa !13
  %38 = getelementptr inbounds nuw %struct.ossl_param_st, ptr %37, i32 1
  store ptr %38, ptr %11, align 8, !tbaa !13
  call void @llvm.lifetime.start.p0(i64 40, ptr %16) #6
  %39 = load ptr, ptr %7, align 8, !tbaa !18
  call void @OSSL_PARAM_construct_utf8_string(ptr dead_on_unwind writable sret(%struct.ossl_param_st) align 8 %16, ptr noundef @.str.73, ptr noundef %39, i64 noundef 0)
  call void @llvm.memcpy.p0.p0.i64(ptr align 8 %37, ptr align 8 %16, i64 40, i1 false), !tbaa.struct !17
  call void @llvm.lifetime.end.p0(i64 40, ptr %16) #6
  %40 = load ptr, ptr %11, align 8, !tbaa !13
  call void @llvm.lifetime.start.p0(i64 40, ptr %17) #6
  call void @OSSL_PARAM_construct_end(ptr dead_on_unwind writable sret(%struct.ossl_param_st) align 8 %17)
  call void @llvm.memcpy.p0.p0.i64(ptr align 8 %40, ptr align 8 %17, i64 40, i1 false), !tbaa.struct !17
  call void @llvm.lifetime.end.p0(i64 40, ptr %17) #6
  %41 = load ptr, ptr %10, align 8, !tbaa !13
  store ptr %41, ptr %5, align 8
  store i32 1, ptr %12, align 4
  br label %42

42:                                               ; preds = %23, %22
  call void @llvm.lifetime.end.p0(i64 8, ptr %11) #6
  call void @llvm.lifetime.end.p0(i64 8, ptr %10) #6
  %43 = load ptr, ptr %5, align 8
  ret ptr %43
}